target datalayout = "e-m:e-p270:32:32-p271:32:32-p272:64:64-i64:64-i128:128-f80:128-n8:16:32:64-S128"
target triple = "x86_64-pc-linux-gnu"

%union.Value = type { ptr }
%struct.Table = type { ptr, i8, i8, i8, i8, i32, ptr, ptr, ptr, ptr }
%struct.TValue = type { %union.Value, i8 }
%union.Node = type { %struct.NodeKey }
%struct.NodeKey = type { %union.Value, i8, i8, i32, %union.Value }
%struct.TString = type { ptr, i8, i8, i8, i8, i32, %union.anon, ptr, ptr, ptr }
%union.anon = type { i64 }

@absentkey = internal constant { %union.Value, i8, [7 x i8] } { %union.Value zeroinitializer, i8 32, [7 x i8] zeroinitializer }, align 8

; Function Attrs: nounwind uwtable
define internal i32 @retpsetcode(ptr noundef %0, ptr noundef %1) #0 {
  %3 = alloca i32, align 4
  %4 = alloca ptr, align 8
  %5 = alloca ptr, align 8
  store ptr %0, ptr %4, align 8, !tbaa !9
  store ptr %1, ptr %5, align 8, !tbaa !22
  %6 = load ptr, ptr %5, align 8, !tbaa !22
  %7 = getelementptr inbounds nuw %struct.TValue, ptr %6, i32 0, i32 1
  %8 = load i8, ptr %7, align 8, !tbaa !24
  %9 = zext i8 %8 to i32
  %10 = icmp eq i32 %9, 32
  br i1 %10, label %11, label %12

11:                                               ; preds = %2
  store i32 1, ptr %3, align 4
  br label %23

12:                                               ; preds = %2
  %13 = load ptr, ptr %5, align 8, !tbaa !22
  %14 = load ptr, ptr %4, align 8, !tbaa !9
  %15 = getelementptr inbounds nuw %struct.Table, ptr %14, i32 0, i32 7
  %16 = load ptr, ptr %15, align 8, !tbaa !28
  %17 = ptrtoint ptr %13 to i64
  %18 = ptrtoint ptr %16 to i64
  %19 = sub i64 %17, %18
  %20 = sdiv exact i64 %19, 24
  %21 = trunc i64 %20 to i32
  %22 = add nsw i32 %21, 3
  store i32 %22, ptr %3, align 4
  br label %23

23:                                               ; preds = %12, %11
  %24 = load i32, ptr %3, align 4
  ret i32 %24
}

; Function Attrs: nounwind uwtable
define hidden ptr @luaH_Hgetshortstr(ptr noundef %0, ptr noundef %1) #0 {
  %3 = alloca ptr, align 8
  %4 = alloca ptr, align 8
  %5 = alloca ptr, align 8
  %6 = alloca ptr, align 8
  %7 = alloca i32, align 4
  %8 = alloca i32, align 4
  store ptr %0, ptr %4, align 8, !tbaa !9
  store ptr %1, ptr %5, align 8, !tbaa !40
  call void @llvm.lifetime.start.p0(i64 8, ptr %6) #8
  %9 = load ptr, ptr %4, align 8, !tbaa !9
  %10 = getelementptr inbounds nuw %struct.Table, ptr %9, i32 0, i32 7
  %11 = load ptr, ptr %10, align 8, !tbaa !28
  %12 = load ptr, ptr %5, align 8, !tbaa !40
  %13 = getelementptr inbounds nuw %struct.TString, ptr %12, i32 0, i32 5
  %14 = load i32, ptr %13, align 4, !tbaa !42
  %15 = load ptr, ptr %4, align 8, !tbaa !9
  %16 = getelementptr inbounds nuw %struct.Table, ptr %15, i32 0, i32 4
  %17 = load i8, ptr %16, align 1, !tbaa !27
  %18 = zext i8 %17 to i32
  %19 = shl i32 1, %18
  %20 = sub i32 %19, 1
  %21 = and i32 %14, %20
  %22 = zext i32 %21 to i64
  %23 = getelementptr inbounds nuw %union.Node, ptr %11, i64 %22
  store ptr %23, ptr %6, align 8, !tbaa !29
  br label %24

24:                                               ; preds = %53, %2
  %25 = load ptr, ptr %6, align 8, !tbaa !29
  %26 = getelementptr inbounds nuw %struct.NodeKey, ptr %25, i32 0, i32 2
  %27 = load i8, ptr %26, align 1, !tbaa !21
  %28 = zext i8 %27 to i32
  %29 = icmp eq i32 %28, 68
  br i1 %29, label %30, label %38

30:                                               ; preds = %24
  %31 = load ptr, ptr %6, align 8, !tbaa !29
  %32 = getelementptr inbounds nuw %struct.NodeKey, ptr %31, i32 0, i32 4
  %33 = load ptr, ptr %32, align 8, !tbaa !21
  %34 = load ptr, ptr %5, align 8, !tbaa !40
  %35 = icmp eq ptr %33, %34
  br i1 %35, label %36, label %38

36:                                               ; preds = %30
  %37 = load ptr, ptr %6, align 8, !tbaa !29
  store ptr %37, ptr %3, align 8
  store i32 1, ptr %7, align 4
  br label %54

38:                                               ; preds = %30, %24
  call void @llvm.lifetime.start.p0(i64 4, ptr %8) #8
  %39 = load ptr, ptr %6, align 8, !tbaa !29
  %40 = getelementptr inbounds nuw %struct.NodeKey, ptr %39, i32 0, i32 3
  %41 = load i32, ptr %40, align 4, !tbaa !21
  store i32 %41, ptr %8, align 4, !tbaa !19
  %42 = load i32, ptr %8, align 4, !tbaa !19
  %43 = icmp eq i32 %42, 0
  br i1 %43, label %44, label %45

44:                                               ; preds = %38
  store ptr @absentkey, ptr %3, align 8
  store i32 1, ptr %7, align 4
  br label %50

45:                                               ; preds = %38
  %46 = load i32, ptr %8, align 4, !tbaa !19
  %47 = load ptr, ptr %6, align 8, !tbaa !29
  %48 = sext i32 %46 to i64
  %49 = getelementptr inbounds %union.Node, ptr %47, i64 %48
  store ptr %49, ptr %6, align 8, !tbaa !29
  store i32 0, ptr %7, align 4
  br label %50

50:                                               ; preds = %45, %44
  call void @llvm.lifetime.end.p0(i64 4, ptr %8) #8
  %51 = load i32, ptr %7, align 4
  switch i32 %51, label %54 [
    i32 0, label %52
  ]

52:                                               ; preds = %50
  br label %53

53:                                               ; preds = %52
  br label %24

54:                                               ; preds = %50, %36
  call void @llvm.lifetime.end.p0(i64 8, ptr %6) #8
  %55 = load ptr, ptr %3, align 8
  ret ptr %55
}

; Function Attrs: nounwind uwtable
define hidden i32 @luaH_psetshortstr(ptr noundef %0, ptr noundef %1, ptr noundef %2) #0 {
  %4 = alloca i32, align 4
  %5 = alloca ptr, align 8
  %6 = alloca ptr, align 8
  %7 = alloca ptr, align 8
  %8 = alloca ptr, align 8
  %9 = alloca ptr, align 8
  %10 = alloca ptr, align 8
  %11 = alloca i32, align 4
  %12 = alloca %struct.TValue, align 8
  %13 = alloca ptr, align 8
  %14 = alloca ptr, align 8
  store ptr %0, ptr %5, align 8, !tbaa !9
  store ptr %1, ptr %6, align 8, !tbaa !40
  store ptr %2, ptr %7, align 8, !tbaa !22
  call void @llvm.lifetime.start.p0(i64 8, ptr %8) #8
  %15 = load ptr, ptr %5, align 8, !tbaa !9
  %16 = load ptr, ptr %6, align 8, !tbaa !40
  %17 = call ptr @luaH_Hgetshortstr(ptr noundef %15, ptr noundef %16)
  store ptr %17, ptr %8, align 8, !tbaa !22
  %18 = load ptr, ptr %8, align 8, !tbaa !22
  %19 = getelementptr inbounds nuw %struct.TValue, ptr %18, i32 0, i32 1
  %20 = load i8, ptr %19, align 8, !tbaa !24
  %21 = zext i8 %20 to i32
  %22 = and i32 %21, 15
  %23 = icmp eq i32 %22, 0
  br i1 %23, label %36, label %24

24:                                               ; preds = %3
  call void @llvm.lifetime.start.p0(i64 8, ptr %9) #8
  %25 = load ptr, ptr %8, align 8, !tbaa !22
  store ptr %25, ptr %9, align 8, !tbaa !22
  call void @llvm.lifetime.start.p0(i64 8, ptr %10) #8
  %26 = load ptr, ptr %7, align 8, !tbaa !22
  store ptr %26, ptr %10, align 8, !tbaa !22
  %27 = load ptr, ptr %9, align 8, !tbaa !22
  %28 = getelementptr inbounds nuw %struct.TValue, ptr %27, i32 0, i32 0
  %29 = load ptr, ptr %10, align 8, !tbaa !22
  %30 = getelementptr inbounds nuw %struct.TValue, ptr %29, i32 0, i32 0
  call void @llvm.memcpy.p0.p0.i64(ptr align 8 %28, ptr align 8 %30, i64 8, i1 false), !tbaa.struct !26
  %31 = load ptr, ptr %10, align 8, !tbaa !22
  %32 = getelementptr inbounds nuw %struct.TValue, ptr %31, i32 0, i32 1
  %33 = load i8, ptr %32, align 8, !tbaa !24
  %34 = load ptr, ptr %9, align 8, !tbaa !22
  %35 = getelementptr inbounds nuw %struct.TValue, ptr %34, i32 0, i32 1
  store i8 %33, ptr %35, align 8, !tbaa !24
  call void @llvm.lifetime.end.p0(i64 8, ptr %10) #8
  call void @llvm.lifetime.end.p0(i64 8, ptr %9) #8
  store i32 0, ptr %4, align 4
  store i32 1, ptr %11, align 4
  br label %112

36:                                               ; preds = %3
  %37 = load ptr, ptr %5, align 8, !tbaa !9
  %38 = getelementptr inbounds nuw %struct.Table, ptr %37, i32 0, i32 8
  %39 = load ptr, ptr %38, align 8, !tbaa !37
  %40 = icmp eq ptr %39, null
  br i1 %40, label %50, label %41

41:                                               ; preds = %36
  %42 = load ptr, ptr %5, align 8, !tbaa !9
  %43 = getelementptr inbounds nuw %struct.Table, ptr %42, i32 0, i32 8
  %44 = load ptr, ptr %43, align 8, !tbaa !37
  %45 = getelementptr inbounds nuw %struct.Table, ptr %44, i32 0, i32 3
  %46 = load i8, ptr %45, align 2, !tbaa !30
  %47 = zext i8 %46 to i32
  %48 = and i32 %47, 2
  %49 = icmp ne i32 %48, 0
  br i1 %49, label %50, label %107

50:                                               ; preds = %41, %36
  %51 = load ptr, ptr %7, align 8, !tbaa !22
  %52 = getelementptr inbounds nuw %struct.TValue, ptr %51, i32 0, i32 1
  %53 = load i8, ptr %52, align 8, !tbaa !24
  %54 = zext i8 %53 to i32
  %55 = and i32 %54, 15
  %56 = icmp eq i32 %55, 0
  br i1 %56, label %57, label %58

57:                                               ; preds = %50
  store i32 0, ptr %4, align 4
  store i32 1, ptr %11, align 4
  br label %112

58:                                               ; preds = %50
  %59 = load ptr, ptr %8, align 8, !tbaa !22
  %60 = getelementptr inbounds nuw %struct.TValue, ptr %59, i32 0, i32 1
  %61 = load i8, ptr %60, align 8, !tbaa !24
  %62 = zext i8 %61 to i32
  %63 = icmp eq i32 %62, 32
  br i1 %63, label %64, label %106

64:                                               ; preds = %58
  %65 = load ptr, ptr %5, align 8, !tbaa !9
  %66 = getelementptr inbounds nuw %struct.Table, ptr %65, i32 0, i32 2
  %67 = load i8, ptr %66, align 1, !tbaa !45
  %68 = zext i8 %67 to i32
  %69 = and i32 %68, 32
  %70 = icmp ne i32 %69, 0
  br i1 %70, label %71, label %78

71:                                               ; preds = %64
  %72 = load ptr, ptr %6, align 8, !tbaa !40
  %73 = getelementptr inbounds nuw %struct.TString, ptr %72, i32 0, i32 2
  %74 = load i8, ptr %73, align 1, !tbaa !46
  %75 = zext i8 %74 to i32
  %76 = and i32 %75, 24
  %77 = icmp ne i32 %76, 0
  br i1 %77, label %106, label %78

78:                                               ; preds = %71, %64
  call void @llvm.lifetime.start.p0(i64 16, ptr %12) #8
  call void @llvm.lifetime.start.p0(i64 8, ptr %13) #8
  store ptr %12, ptr %13, align 8, !tbaa !22
  call void @llvm.lifetime.start.p0(i64 8, ptr %14) #8
  %79 = load ptr, ptr %6, align 8, !tbaa !40
  store ptr %79, ptr %14, align 8, !tbaa !40
  %80 = load ptr, ptr %14, align 8, !tbaa !40
  %81 = load ptr, ptr %13, align 8, !tbaa !22
  %82 = getelementptr inbounds nuw %struct.TValue, ptr %81, i32 0, i32 0
  store ptr %80, ptr %82, align 8, !tbaa !21
  %83 = load ptr, ptr %14, align 8, !tbaa !40
  %84 = getelementptr inbounds nuw %struct.TString, ptr %83, i32 0, i32 1
  %85 = load i8, ptr %84, align 8, !tbaa !47
  %86 = zext i8 %85 to i32
  %87 = or i32 %86, 64
  %88 = trunc i32 %87 to i8
  %89 = load ptr, ptr %13, align 8, !tbaa !22
  %90 = getelementptr inbounds nuw %struct.TValue, ptr %89, i32 0, i32 1
  store i8 %88, ptr %90, align 8, !tbaa !24
  call void @llvm.lifetime.end.p0(i64 8, ptr %14) #8
  call void @llvm.lifetime.end.p0(i64 8, ptr %13) #8
  %91 = load ptr, ptr %5, align 8, !tbaa !9
  %92 = load ptr, ptr %7, align 8, !tbaa !22
  %93 = call i32 @insertkey(ptr noundef %91, ptr noundef %12, ptr noundef %92)
  %94 = icmp ne i32 %93, 0
  br i1 %94, label %95, label %102

95:                                               ; preds = %78
  %96 = load ptr, ptr %5, align 8, !tbaa !9
  %97 = getelementptr inbounds nuw %struct.Table, ptr %96, i32 0, i32 3
  %98 = load i8, ptr %97, align 2, !tbaa !30
  %99 = zext i8 %98 to i32
  %100 = and i32 %99, 192
  %101 = trunc i32 %100 to i8
  store i8 %101, ptr %97, align 2, !tbaa !30
  store i32 0, ptr %4, align 4
  store i32 1, ptr %11, align 4
  br label %103

102:                                              ; preds = %78
  store i32 0, ptr %11, align 4
  br label %103

103:                                              ; preds = %102, %95
  call void @llvm.lifetime.end.p0(i64 16, ptr %12) #8
  %104 = load i32, ptr %11, align 4
  switch i32 %104, label %112 [
    i32 0, label %105
  ]

105:                                              ; preds = %103
  br label %106

106:                                              ; preds = %105, %71, %58
  br label %107

107:                                              ; preds = %106, %41
  br label %108

108:                                              ; preds = %107
  %109 = load ptr, ptr %5, align 8, !tbaa !9
  %110 = load ptr, ptr %8, align 8, !tbaa !22
  %111 = call i32 @retpsetcode(ptr noundef %109, ptr noundef %110)
  store i32 %111, ptr %4, align 4
  store i32 1, ptr %11, align 4
  br label %112

112:                                              ; preds = %108, %103, %57, %24
  call void @llvm.lifetime.end.p0(i64 8, ptr %8) #8
  %113 = load i32, ptr %4, align 4
  ret i32 %113
}