; Function Attrs: nounwind uwtable
define hidden range(i32 -2147483645, -2147483648) i32 @luaH_psetshortstr(ptr noundef captures(none) %0, ptr noundef %1, ptr noundef readonly captures(none) %2) local_unnamed_addr #0 {
  %4 = alloca %struct.TValue, align 8
  %5 = getelementptr inbounds nuw i8, ptr %0, i64 24
  %6 = load ptr, ptr %5, align 8, !tbaa !18
  %7 = getelementptr inbounds nuw i8, ptr %1, i64 12
  %8 = load i32, ptr %7, align 4, !tbaa !25
  %9 = getelementptr inbounds nuw i8, ptr %0, i64 11
  %10 = load i8, ptr %9, align 1, !tbaa !20
  %11 = zext nneg i8 %10 to i32
  %notmask.i = shl nsw i32 -1, %11
  %12 = xor i32 %notmask.i, -1
  %13 = and i32 %8, %12
  %14 = zext nneg i32 %13 to i64
  %15 = getelementptr inbounds nuw %union.Node, ptr %6, i64 %14
  br label %16

16:                                               ; preds = %24, %3
  %.013.i = phi ptr [ %15, %3 ], [ %28, %24 ]
  %17 = getelementptr inbounds nuw i8, ptr %.013.i, i64 9
  %18 = load i8, ptr %17, align 1, !tbaa !16
  %19 = icmp eq i8 %18, 68
  br i1 %19, label %20, label %24

20:                                               ; preds = %16
  %21 = getelementptr inbounds nuw i8, ptr %.013.i, i64 16
  %22 = load ptr, ptr %21, align 8, !tbaa !16
  %23 = icmp eq ptr %22, %1
  br i1 %23, label %luaH_Hgetshortstr.exit, label %24

24:                                               ; preds = %20, %16
  %25 = getelementptr inbounds nuw i8, ptr %.013.i, i64 12
  %26 = load i32, ptr %25, align 4, !tbaa !16
  %.not.i = icmp eq i32 %26, 0
  %27 = sext i32 %26 to i64
  %28 = getelementptr inbounds %union.Node, ptr %.013.i, i64 %27
  br i1 %.not.i, label %luaH_Hgetshortstr.exit, label %16

luaH_Hgetshortstr.exit:                           ; preds = %20, %24
  %.1.i = phi ptr [ @absentkey, %24 ], [ %.013.i, %20 ]
  %29 = getelementptr inbounds nuw i8, ptr %.1.i, i64 8
  %30 = load i8, ptr %29, align 8, !tbaa !14
  %31 = and i8 %30, 15
  %32 = icmp eq i8 %31, 0
  br i1 %32, label %37, label %33

33:                                               ; preds = %luaH_Hgetshortstr.exit
  %34 = load i64, ptr %2, align 8, !tbaa !16
  store i64 %34, ptr %.1.i, align 8, !tbaa !16
  %35 = getelementptr inbounds nuw i8, ptr %2, i64 8
  %36 = load i8, ptr %35, align 8, !tbaa !14
  store i8 %36, ptr %29, align 8, !tbaa !14
  br label %retpsetcode.exit

37:                                               ; preds = %luaH_Hgetshortstr.exit
  %38 = getelementptr inbounds nuw i8, ptr %0, i64 32
  %39 = load ptr, ptr %38, align 8, !tbaa !24
  %40 = icmp eq ptr %39, null
  br i1 %40, label %45, label %41

41:                                               ; preds = %37
  %42 = getelementptr inbounds nuw i8, ptr %39, i64 10
  %43 = load i8, ptr %42, align 2, !tbaa !21
  %44 = and i8 %43, 2
  %.not = icmp eq i8 %44, 0
  br i1 %.not, label %70, label %45

45:                                               ; preds = %41, %37
  %46 = getelementptr inbounds nuw i8, ptr %2, i64 8
  %47 = load i8, ptr %46, align 8, !tbaa !14
  %48 = and i8 %47, 15
  %49 = icmp eq i8 %48, 0
  br i1 %49, label %retpsetcode.exit, label %50

50:                                               ; preds = %45
  %51 = icmp eq i8 %30, 32
  br i1 %51, label %52, label %70

52:                                               ; preds = %50
  %53 = getelementptr inbounds nuw i8, ptr %0, i64 9
  %54 = load i8, ptr %53, align 1, !tbaa !32
  %55 = and i8 %54, 32
  %.not28 = icmp eq i8 %55, 0
  br i1 %.not28, label %60, label %56

56:                                               ; preds = %52
  %57 = getelementptr inbounds nuw i8, ptr %1, i64 9
  %58 = load i8, ptr %57, align 1, !tbaa !33
  %59 = and i8 %58, 24
  %.not29 = icmp eq i8 %59, 0
  br i1 %.not29, label %60, label %retpsetcode.exit

60:                                               ; preds = %56, %52
  call void @llvm.lifetime.start.p0(i64 16, ptr nonnull %4) #13
  store ptr %1, ptr %4, align 8, !tbaa !16
  %61 = getelementptr inbounds nuw i8, ptr %1, i64 8
  %62 = load i8, ptr %61, align 8, !tbaa !29
  %63 = or i8 %62, 64
  %64 = getelementptr inbounds nuw i8, ptr %4, i64 8
  store i8 %63, ptr %64, align 8, !tbaa !14
  %65 = call fastcc i32 @insertkey(ptr noundef nonnull %0, ptr noundef nonnull %4, ptr noundef nonnull %2)
  %.not30 = icmp eq i32 %65, 0
  br i1 %.not30, label %.critedge, label %66

66:                                               ; preds = %60
  %67 = getelementptr inbounds nuw i8, ptr %0, i64 10
  %68 = load i8, ptr %67, align 2, !tbaa !21
  %69 = and i8 %68, -64
  store i8 %69, ptr %67, align 2, !tbaa !21
  call void @llvm.lifetime.end.p0(i64 16, ptr nonnull %4) #13
  br label %retpsetcode.exit

.critedge:                                        ; preds = %60
  call void @llvm.lifetime.end.p0(i64 16, ptr nonnull %4) #13
  %.pre = load i8, ptr %29, align 8, !tbaa !14
  br label %70

70:                                               ; preds = %.critedge, %41, %50
  %71 = phi i8 [ %.pre, %.critedge ], [ %30, %41 ], [ %30, %50 ]
  %72 = icmp eq i8 %71, 32
  br i1 %72, label %retpsetcode.exit, label %73

73:                                               ; preds = %70
  %74 = load ptr, ptr %5, align 8, !tbaa !18
  %75 = ptrtoint ptr %.1.i to i64
  %76 = ptrtoint ptr %74 to i64
  %77 = sub i64 %75, %76
  %78 = sdiv exact i64 %77, 24
  %79 = trunc i64 %78 to i32
  %80 = add nsw i32 %79, 3
  br label %retpsetcode.exit

retpsetcode.exit:                                 ; preds = %56, %73, %70, %66, %45, %33
  %.0 = phi i32 [ 0, %66 ], [ 0, %33 ], [ 0, %45 ], [ %80, %73 ], [ 1, %70 ], [ 1, %56 ]
  ret i32 %.0
}